target datalayout = "e-m:e-p270:32:32-p271:32:32-p272:64:64-i64:64-i128:128-f80:128-n8:16:32:64-S128"
target triple = "x86_64-pc-linux-gnu"

%"class.google::protobuf::io::CodedOutputStream" = type { %"class.google::protobuf::io::EpsCopyOutputStream", ptr, i64 }
%"class.google::protobuf::io::EpsCopyOutputStream" = type <{ ptr, ptr, [32 x i8], ptr, i8, i8, i8, [5 x i8] }>

; Function Attrs: mustprogress uwtable
define linkonce_odr noundef ptr @_ZN6google8protobuf2io17CodedOutputStream20WriteVarint32ToArrayEjPh(i32 noundef %0, ptr noundef %1) #4 comdat align 2 {
  %3 = alloca ptr, align 8
  %4 = alloca i32, align 4
  %5 = alloca ptr, align 8
  %6 = alloca i32, align 4
  %7 = alloca ptr, align 8
  store i32 %0, ptr %6, align 4
  store ptr %1, ptr %7, align 8
  %8 = load i32, ptr %6, align 4
  %9 = load ptr, ptr %7, align 8
  store i32 %8, ptr %4, align 4
  store ptr %9, ptr %5, align 8
  %10 = load i32, ptr %4, align 4
  %11 = icmp ult i32 %10, 128
  br i1 %11, label %12, label %18

12:                                               ; preds = %2
  %13 = load i32, ptr %4, align 4
  %14 = trunc i32 %13 to i8
  %15 = load ptr, ptr %5, align 8
  store i8 %14, ptr %15, align 1
  %16 = load ptr, ptr %5, align 8
  %17 = getelementptr inbounds i8, ptr %16, i64 1
  store ptr %17, ptr %3, align 8
  br label %54

18:                                               ; preds = %2
  %19 = load i32, ptr %4, align 4
  %20 = or i32 %19, 128
  %21 = trunc i32 %20 to i8
  %22 = load ptr, ptr %5, align 8
  store i8 %21, ptr %22, align 1
  %23 = load i32, ptr %4, align 4
  %24 = lshr i32 %23, 7
  store i32 %24, ptr %4, align 4
  %25 = load i32, ptr %4, align 4
  %26 = icmp ult i32 %25, 128
  br i1 %26, label %27, label %34

27:                                               ; preds = %18
  %28 = load i32, ptr %4, align 4
  %29 = trunc i32 %28 to i8
  %30 = load ptr, ptr %5, align 8
  %31 = getelementptr inbounds i8, ptr %30, i64 1
  store i8 %29, ptr %31, align 1
  %32 = load ptr, ptr %5, align 8
  %33 = getelementptr inbounds i8, ptr %32, i64 2
  store ptr %33, ptr %3, align 8
  br label %54

34:                                               ; preds = %18
  %35 = load ptr, ptr %5, align 8
  %36 = getelementptr inbounds i8, ptr %35, i32 1
  store ptr %36, ptr %5, align 8
  br label %37

37:                                               ; preds = %37, %34
  %38 = load i32, ptr %4, align 4
  %39 = or i32 %38, 128
  %40 = trunc i32 %39 to i8
  %41 = load ptr, ptr %5, align 8
  store i8 %40, ptr %41, align 1
  %42 = load i32, ptr %4, align 4
  %43 = lshr i32 %42, 7
  store i32 %43, ptr %4, align 4
  %44 = load ptr, ptr %5, align 8
  %45 = getelementptr inbounds i8, ptr %44, i32 1
  store ptr %45, ptr %5, align 8
  %46 = load i32, ptr %4, align 4
  %47 = icmp uge i32 %46, 128
  br i1 %47, label %37, label %48, !llvm.loop !14

48:                                               ; preds = %37
  %49 = load i32, ptr %4, align 4
  %50 = trunc i32 %49 to i8
  %51 = load ptr, ptr %5, align 8
  %52 = getelementptr inbounds i8, ptr %51, i32 1
  store ptr %52, ptr %5, align 8
  store i8 %50, ptr %51, align 1
  %53 = load ptr, ptr %5, align 8
  store ptr %53, ptr %3, align 8
  br label %54

54:                                               ; preds = %48, %27, %12
  %55 = load ptr, ptr %3, align 8
  ret ptr %55
}

; Function Attrs: mustprogress nounwind uwtable
define linkonce_odr void @_ZN6google8protobuf2io17CodedOutputStream6SetCurEPh(ptr noundef nonnull align 8 dereferenceable(80) %0, ptr noundef %1) #5 comdat align 2 {
  %3 = alloca ptr, align 8
  %4 = alloca ptr, align 8
  store ptr %0, ptr %3, align 8
  store ptr %1, ptr %4, align 8
  %5 = load ptr, ptr %3, align 8
  %6 = load ptr, ptr %4, align 8
  %7 = getelementptr inbounds %"class.google::protobuf::io::CodedOutputStream", ptr %5, i32 0, i32 1
  store ptr %6, ptr %7, align 8
  ret void
}

; Function Attrs: mustprogress nounwind uwtable
define linkonce_odr noundef ptr @_ZN6google8protobuf2io17CodedOutputStream26WriteLittleEndian32ToArrayEjPh(i32 noundef %0, ptr noundef %1) #5 comdat align 2 {
  %3 = alloca i32, align 4
  %4 = alloca ptr, align 8
  store i32 %0, ptr %3, align 4
  store ptr %1, ptr %4, align 8
  %5 = load ptr, ptr %4, align 8
  call void @llvm.memcpy.p0.p0.i64(ptr align 1 %5, ptr align 4 %3, i64 4, i1 false)
  %6 = load ptr, ptr %4, align 8
  %7 = getelementptr inbounds i8, ptr %6, i64 4
  ret ptr %7
}

; Function Attrs: mustprogress nounwind uwtable
define linkonce_odr noundef ptr @_ZNK6google8protobuf2io17CodedOutputStream3CurEv(ptr noundef nonnull align 8 dereferenceable(80) %0) #5 comdat align 2 {
  %2 = alloca ptr, align 8
  store ptr %0, ptr %2, align 8
  %3 = load ptr, ptr %2, align 8
  %4 = getelementptr inbounds %"class.google::protobuf::io::CodedOutputStream", ptr %3, i32 0, i32 1
  %5 = load ptr, ptr %4, align 8
  ret ptr %5
}

; Function Attrs: mustprogress uwtable
define linkonce_odr noundef ptr @_ZN6google8protobuf2io19EpsCopyOutputStream11EnsureSpaceEPh(ptr noundef nonnull align 8 dereferenceable(59) %0, ptr noundef %1) #4 comdat align 2 {
  %3 = alloca ptr, align 8
  %4 = alloca ptr, align 8
  %5 = alloca ptr, align 8
  store ptr %0, ptr %4, align 8
  store ptr %1, ptr %5, align 8
  %6 = load ptr, ptr %4, align 8
  %7 = load ptr, ptr %5, align 8
  %8 = getelementptr inbounds %"class.google::protobuf::io::EpsCopyOutputStream", ptr %6, i32 0, i32 0
  %9 = load ptr, ptr %8, align 8
  %10 = icmp uge ptr %7, %9
  br i1 %10, label %11, label %14

11:                                               ; preds = %2
  %12 = load ptr, ptr %5, align 8
  %13 = call noundef ptr @_ZN6google8protobuf2io19EpsCopyOutputStream19EnsureSpaceFallbackEPh(ptr noundef nonnull align 8 dereferenceable(59) %6, ptr noundef %12)
  store ptr %13, ptr %3, align 8
  br label %16

14:                                               ; preds = %2
  %15 = load ptr, ptr %5, align 8
  store ptr %15, ptr %3, align 8
  br label %16

16:                                               ; preds = %14, %11
  %17 = load ptr, ptr %3, align 8
  ret ptr %17
}

; Function Attrs: mustprogress uwtable
define linkonce_odr void @_ZN6google8protobuf2io17CodedOutputStream13WriteVarint32Ej(ptr noundef nonnull align 8 dereferenceable(80) %0, i32 noundef %1) #4 comdat align 2 {
  %3 = alloca ptr, align 8
  %4 = alloca i32, align 4
  store ptr %0, ptr %3, align 8
  store i32 %1, ptr %4, align 4
  %5 = load ptr, ptr %3, align 8
  %6 = getelementptr inbounds %"class.google::protobuf::io::CodedOutputStream", ptr %5, i32 0, i32 0
  %7 = getelementptr inbounds %"class.google::protobuf::io::CodedOutputStream", ptr %5, i32 0, i32 1
  %8 = load ptr, ptr %7, align 8
  %9 = call noundef ptr @_ZN6google8protobuf2io19EpsCopyOutputStream11EnsureSpaceEPh(ptr noundef nonnull align 8 dereferenceable(59) %6, ptr noundef %8)
  %10 = getelementptr inbounds %"class.google::protobuf::io::CodedOutputStream", ptr %5, i32 0, i32 1
  store ptr %9, ptr %10, align 8
  %11 = load i32, ptr %4, align 4
  %12 = call noundef ptr @_ZNK6google8protobuf2io17CodedOutputStream3CurEv(ptr noundef nonnull align 8 dereferenceable(80) %5)
  %13 = call noundef ptr @_ZN6google8protobuf2io17CodedOutputStream20WriteVarint32ToArrayEjPh(i32 noundef %11, ptr noundef %12)
  call void @_ZN6google8protobuf2io17CodedOutputStream6SetCurEPh(ptr noundef nonnull align 8 dereferenceable(80) %5, ptr noundef %13)
  ret void
}

; Function Attrs: mustprogress uwtable
define linkonce_odr void @_ZN6google8protobuf2io17CodedOutputStream19WriteLittleEndian32Ej(ptr noundef nonnull align 8 dereferenceable(80) %0, i32 noundef %1) #4 comdat align 2 {
  %3 = alloca ptr, align 8
  %4 = alloca i32, align 4
  store ptr %0, ptr %3, align 8
  store i32 %1, ptr %4, align 4
  %5 = load ptr, ptr %3, align 8
  %6 = getelementptr inbounds %"class.google::protobuf::io::CodedOutputStream", ptr %5, i32 0, i32 0
  %7 = getelementptr inbounds %"class.google::protobuf::io::CodedOutputStream", ptr %5, i32 0, i32 1
  %8 = load ptr, ptr %7, align 8
  %9 = call noundef ptr @_ZN6google8protobuf2io19EpsCopyOutputStream11EnsureSpaceEPh(ptr noundef nonnull align 8 dereferenceable(59) %6, ptr noundef %8)
  %10 = getelementptr inbounds %"class.google::protobuf::io::CodedOutputStream", ptr %5, i32 0, i32 1
  store ptr %9, ptr %10, align 8
  %11 = load i32, ptr %4, align 4
  %12 = call noundef ptr @_ZNK6google8protobuf2io17CodedOutputStream3CurEv(ptr noundef nonnull align 8 dereferenceable(80) %5)
  %13 = call noundef ptr @_ZN6google8protobuf2io17CodedOutputStream26WriteLittleEndian32ToArrayEjPh(i32 noundef %11, ptr noundef %12)
  call void @_ZN6google8protobuf2io17CodedOutputStream6SetCurEPh(ptr noundef nonnull align 8 dereferenceable(80) %5, ptr noundef %13)
  ret void
}

; Function Attrs: mustprogress uwtable
define linkonce_odr void @_ZN6google8protobuf2io17CodedOutputStream8WriteTagEj(ptr noundef nonnull align 8 dereferenceable(80) %0, i32 noundef %1) #4 comdat align 2 {
  %3 = alloca ptr, align 8
  %4 = alloca i32, align 4
  store ptr %0, ptr %3, align 8
  store i32 %1, ptr %4, align 4
  %5 = load ptr, ptr %3, align 8
  %6 = load i32, ptr %4, align 4
  call void @_ZN6google8protobuf2io17CodedOutputStream13WriteVarint32Ej(ptr noundef nonnull align 8 dereferenceable(80) %5, i32 noundef %6)
  ret void
}

; Function Attrs: mustprogress nounwind uwtable
define linkonce_odr noundef i32 @_ZN6google8protobuf8internal14WireFormatLite7MakeTagEiNS2_8WireTypeE(i32 noundef %0, i32 noundef %1) #5 comdat align 2 {
  %3 = alloca i32, align 4
  %4 = alloca i32, align 4
  store i32 %0, ptr %3, align 4
  store i32 %1, ptr %4, align 4
  %5 = load i32, ptr %3, align 4
  %6 = shl i32 %5, 3
  %7 = load i32, ptr %4, align 4
  %8 = or i32 %6, %7
  ret i32 %8
}

; Function Attrs: mustprogress uwtable
define void @_ZN6google8protobuf8internal14WireFormatLite12WriteFixed32EijPNS0_2io17CodedOutputStreamE(i32 noundef %0, i32 noundef %1, ptr noundef %2) #4 align 2 {
  %4 = alloca i32, align 4
  %5 = alloca ptr, align 8
  %6 = alloca i32, align 4
  %7 = alloca i32, align 4
  %8 = alloca ptr, align 8
  %9 = alloca i32, align 4
  %10 = alloca i32, align 4
  %11 = alloca ptr, align 8
  store i32 %0, ptr %9, align 4
  store i32 %1, ptr %10, align 4
  store ptr %2, ptr %11, align 8
  %12 = load i32, ptr %9, align 4
  %13 = load ptr, ptr %11, align 8
  store i32 %12, ptr %6, align 4
  store i32 5, ptr %7, align 4
  store ptr %13, ptr %8, align 8
  %14 = load ptr, ptr %8, align 8
  %15 = load i32, ptr %6, align 4
  %16 = load i32, ptr %7, align 4
  %17 = call noundef i32 @_ZN6google8protobuf8internal14WireFormatLite7MakeTagEiNS2_8WireTypeE(i32 noundef %15, i32 noundef %16)
  call void @_ZN6google8protobuf2io17CodedOutputStream8WriteTagEj(ptr noundef nonnull align 8 dereferenceable(80) %14, i32 noundef %17)
  %18 = load i32, ptr %10, align 4
  %19 = load ptr, ptr %11, align 8
  store i32 %18, ptr %4, align 4
  store ptr %19, ptr %5, align 8
  %20 = load ptr, ptr %5, align 8
  %21 = load i32, ptr %4, align 4
  call void @_ZN6google8protobuf2io17CodedOutputStream19WriteLittleEndian32Ej(ptr noundef nonnull align 8 dereferenceable(80) %20, i32 noundef %21)
  ret void
}