; Function Attrs: mustprogress uwtable
define void @_ZN6google8protobuf8internal14WireFormatLite12WriteFixed32EijPNS0_2io17CodedOutputStreamE(i32 noundef %0, i32 noundef %1, ptr noundef %2) local_unnamed_addr #3 align 2 {
  %4 = shl i32 %0, 3
  %5 = or disjoint i32 %4, 5
  %6 = getelementptr inbounds i8, ptr %2, i64 64
  %7 = load ptr, ptr %6, align 8
  %8 = load ptr, ptr %2, align 8
  %.not.i.i.i = icmp ugt ptr %8, %7
  br i1 %.not.i.i.i, label %_ZN6google8protobuf2io19EpsCopyOutputStream11EnsureSpaceEPh.exit.i.i, label %9

9:                                                ; preds = %3
  %10 = tail call noundef ptr @_ZN6google8protobuf2io19EpsCopyOutputStream19EnsureSpaceFallbackEPh(ptr noundef nonnull align 8 dereferenceable(59) %2, ptr noundef %7)
  br label %_ZN6google8protobuf2io19EpsCopyOutputStream11EnsureSpaceEPh.exit.i.i

_ZN6google8protobuf2io19EpsCopyOutputStream11EnsureSpaceEPh.exit.i.i: ; preds = %9, %3
  %.0.i.i.i = phi ptr [ %10, %9 ], [ %7, %3 ]
  %11 = icmp ult i32 %5, 128
  %12 = trunc i32 %5 to i8
  br i1 %11, label %13, label %15

13:                                               ; preds = %_ZN6google8protobuf2io19EpsCopyOutputStream11EnsureSpaceEPh.exit.i.i
  store i8 %12, ptr %.0.i.i.i, align 1
  %14 = getelementptr inbounds i8, ptr %.0.i.i.i, i64 1
  br label %_ZN6google8protobuf2io17CodedOutputStream8WriteTagEj.exit

15:                                               ; preds = %_ZN6google8protobuf2io19EpsCopyOutputStream11EnsureSpaceEPh.exit.i.i
  %16 = or i8 %12, -128
  store i8 %16, ptr %.0.i.i.i, align 1
  %17 = lshr i32 %4, 7
  %18 = icmp ult i32 %5, 16384
  br i1 %18, label %19, label %23

19:                                               ; preds = %15
  %20 = trunc nuw nsw i32 %17 to i8
  %21 = getelementptr inbounds i8, ptr %.0.i.i.i, i64 1
  store i8 %20, ptr %21, align 1
  %22 = getelementptr inbounds i8, ptr %.0.i.i.i, i64 2
  br label %_ZN6google8protobuf2io17CodedOutputStream8WriteTagEj.exit

23:                                               ; preds = %15
  %24 = getelementptr inbounds i8, ptr %.0.i.i.i, i64 1
  br label %25

25:                                               ; preds = %25, %23
  %.023.i.i.i = phi ptr [ %24, %23 ], [ %29, %25 ]
  %.022.i.i.i = phi i32 [ %17, %23 ], [ %28, %25 ]
  %26 = trunc i32 %.022.i.i.i to i8
  %27 = or i8 %26, -128
  store i8 %27, ptr %.023.i.i.i, align 1
  %28 = lshr i32 %.022.i.i.i, 7
  %29 = getelementptr inbounds i8, ptr %.023.i.i.i, i64 1
  %30 = icmp ugt i32 %.022.i.i.i, 16383
  br i1 %30, label %25, label %31, !llvm.loop !6

31:                                               ; preds = %25
  %32 = trunc nuw nsw i32 %28 to i8
  %33 = getelementptr inbounds i8, ptr %.023.i.i.i, i64 2
  store i8 %32, ptr %29, align 1
  br label %_ZN6google8protobuf2io17CodedOutputStream8WriteTagEj.exit

_ZN6google8protobuf2io17CodedOutputStream8WriteTagEj.exit: ; preds = %13, %19, %31
  %.0.i1.i.i = phi ptr [ %14, %13 ], [ %22, %19 ], [ %33, %31 ]
  store ptr %.0.i1.i.i, ptr %6, align 8
  %34 = load ptr, ptr %2, align 8
  %.not.i.i = icmp ugt ptr %34, %.0.i1.i.i
  br i1 %.not.i.i, label %_ZN6google8protobuf2io17CodedOutputStream19WriteLittleEndian32Ej.exit, label %35

35:                                               ; preds = %_ZN6google8protobuf2io17CodedOutputStream8WriteTagEj.exit
  %36 = tail call noundef ptr @_ZN6google8protobuf2io19EpsCopyOutputStream19EnsureSpaceFallbackEPh(ptr noundef nonnull align 8 dereferenceable(59) %2, ptr noundef nonnull %.0.i1.i.i)
  br label %_ZN6google8protobuf2io17CodedOutputStream19WriteLittleEndian32Ej.exit

_ZN6google8protobuf2io17CodedOutputStream19WriteLittleEndian32Ej.exit: ; preds = %_ZN6google8protobuf2io17CodedOutputStream8WriteTagEj.exit, %35
  %.0.i.i = phi ptr [ %36, %35 ], [ %.0.i1.i.i, %_ZN6google8protobuf2io17CodedOutputStream8WriteTagEj.exit ]
  store i32 %1, ptr %.0.i.i, align 1
  %37 = getelementptr inbounds i8, ptr %.0.i.i, i64 4
  store ptr %37, ptr %6, align 8
  ret void
}